#include <math.h>
#include <stdio.h>
#include <stdlib.h>
#include <string.h>

int main(int argc, char* argv[])
{
	int n,k,a[1000],i,j,t=0;
	scanf("%d %d",&n,&k);
	for(i=0;i<n;i++){
		scanf("%d",&a[i]);}
	for(i=0;i<n/2+1;i++){
		for(j=i+1;j<n;j++){
			if(a[i]+a[j]==k) {t=1;break;}
		}
		if(t==1) break;
	}
	if(t==1)printf("yes");
	else printf("no");
	return 0;
}

