; ModuleID = '3/130.c'
source_filename = "3/130.c"
target datalayout = "e-m:e-p270:32:32-p271:32:32-p272:64:64-i64:64-f80:128-n8:16:32:64-S128"
target triple = "x86_64-pc-linux-gnu"

@.str = private unnamed_addr constant [6 x i8] c"%d %d\00", align 1
@.str.1 = private unnamed_addr constant [3 x i8] c"%d\00", align 1
@.str.2 = private unnamed_addr constant [4 x i8] c"yes\00", align 1
@.str.3 = private unnamed_addr constant [3 x i8] c"no\00", align 1

; Function Attrs: noinline nounwind uwtable
define dso_local i32 @main(i32 %0, i8** %1) #0 {
  %3 = alloca i32, align 4
  %4 = alloca i32, align 4
  %5 = alloca i8**, align 8
  %6 = alloca i32, align 4
  %7 = alloca i32, align 4
  %8 = alloca [1000 x i32], align 16
  %9 = alloca i32, align 4
  %10 = alloca i32, align 4
  %11 = alloca i32, align 4
  store i32 0, i32* %3, align 4
  store i32 %0, i32* %4, align 4
  store i8** %1, i8*** %5, align 8
  store i32 0, i32* %11, align 4
  %12 = call i32 (i8*, ...) @__isoc99_scanf(i8* getelementptr inbounds ([6 x i8], [6 x i8]* @.str, i64 0, i64 0), i32* %6, i32* %7)
  store i32 0, i32* %9, align 4
  br label %13

13:                                               ; preds = %22, %2
  %14 = load i32, i32* %9, align 4
  %15 = load i32, i32* %6, align 4
  %16 = icmp slt i32 %14, %15
  br i1 %16, label %17, label %25

17:                                               ; preds = %13
  %18 = load i32, i32* %9, align 4
  %19 = sext i32 %18 to i64
  %20 = getelementptr inbounds [1000 x i32], [1000 x i32]* %8, i64 0, i64 %19
  %21 = call i32 (i8*, ...) @__isoc99_scanf(i8* getelementptr inbounds ([3 x i8], [3 x i8]* @.str.1, i64 0, i64 0), i32* %20)
  br label %22

22:                                               ; preds = %17
  %23 = load i32, i32* %9, align 4
  %24 = add nsw i32 %23, 1
  store i32 %24, i32* %9, align 4
  br label %13

25:                                               ; preds = %13
  store i32 0, i32* %9, align 4
  br label %26

26:                                               ; preds = %61, %25
  %27 = load i32, i32* %9, align 4
  %28 = load i32, i32* %6, align 4
  %29 = sdiv i32 %28, 2
  %30 = add nsw i32 %29, 1
  %31 = icmp slt i32 %27, %30
  br i1 %31, label %32, label %64

32:                                               ; preds = %26
  %33 = load i32, i32* %9, align 4
  %34 = add nsw i32 %33, 1
  store i32 %34, i32* %10, align 4
  br label %35

35:                                               ; preds = %53, %32
  %36 = load i32, i32* %10, align 4
  %37 = load i32, i32* %6, align 4
  %38 = icmp slt i32 %36, %37
  br i1 %38, label %39, label %56

39:                                               ; preds = %35
  %40 = load i32, i32* %9, align 4
  %41 = sext i32 %40 to i64
  %42 = getelementptr inbounds [1000 x i32], [1000 x i32]* %8, i64 0, i64 %41
  %43 = load i32, i32* %42, align 4
  %44 = load i32, i32* %10, align 4
  %45 = sext i32 %44 to i64
  %46 = getelementptr inbounds [1000 x i32], [1000 x i32]* %8, i64 0, i64 %45
  %47 = load i32, i32* %46, align 4
  %48 = add nsw i32 %43, %47
  %49 = load i32, i32* %7, align 4
  %50 = icmp eq i32 %48, %49
  br i1 %50, label %51, label %52

51:                                               ; preds = %39
  store i32 1, i32* %11, align 4
  br label %56

52:                                               ; preds = %39
  br label %53

53:                                               ; preds = %52
  %54 = load i32, i32* %10, align 4
  %55 = add nsw i32 %54, 1
  store i32 %55, i32* %10, align 4
  br label %35

56:                                               ; preds = %51, %35
  %57 = load i32, i32* %11, align 4
  %58 = icmp eq i32 %57, 1
  br i1 %58, label %59, label %60

59:                                               ; preds = %56
  br label %64

60:                                               ; preds = %56
  br label %61

61:                                               ; preds = %60
  %62 = load i32, i32* %9, align 4
  %63 = add nsw i32 %62, 1
  store i32 %63, i32* %9, align 4
  br label %26

64:                                               ; preds = %59, %26
  %65 = load i32, i32* %11, align 4
  %66 = icmp eq i32 %65, 1
  br i1 %66, label %67, label %69

67:                                               ; preds = %64
  %68 = call i32 (i8*, ...) @printf(i8* getelementptr inbounds ([4 x i8], [4 x i8]* @.str.2, i64 0, i64 0))
  br label %71

69:                                               ; preds = %64
  %70 = call i32 (i8*, ...) @printf(i8* getelementptr inbounds ([3 x i8], [3 x i8]* @.str.3, i64 0, i64 0))
  br label %71

71:                                               ; preds = %69, %67
  ret i32 0
}

declare dso_local i32 @__isoc99_scanf(i8*, ...) #1

declare dso_local i32 @printf(i8*, ...) #1


!llvm.module.flags = !{!0}
!llvm.ident = !{!1}

!0 = !{i32 1, !"wchar_size", i32 4}
!1 = !{!"clang version 10.0.0-4ubuntu1 "}
